-----BEGIN CERTIFICATE-----
MIIDjDCCAnSgAwIBAgIIYghWpwgLa2EwDQYJKoZIhvcNAQELBQAwFDESMBAGA1UE
AwwJcHVibGlzaGVyMB4XDTIwMDYyMzA4NTg1MVoXDTIxMDYyMzA4NTg1MVowFDES
MBAGA1UEAwwJcHVibGlzaGVyMIIBIjANBgkqhkiG9w0BAQEFAAOCAQ8AMIIBCgKC
AQEA00udnrsiUfW0439ggqMhBwyt54sDI8Kd7RSmUIIIsfyG6K0vyaQzPsztcH4O
cuxTqo/H+CtZvt0lMiSB7pPZw6ORp2uz71hNYxyBoybqx6tkiPsgKNfbcFAvJr+D
c5oek7pabrDjXlMu8NqYLOXPcYUu0y2WuAQZj7OqQVWOyGlapYmqR2/gvEtpRytZ
dG0yjt7LhOScc12T2TGWayJcFsP4EnIc0oIsD2Yfake3S/JRHBrengqvSzu6mYgA
wYQVHB1GxCLw10y1H2tK9XEUHHquaHEK/NNPkTZtp87OCg9VtqVCLJeSj/9jpjsV
Ez1Vm65a3WJCD6fPg/GwZSag6QIDAQABo4HhMIHeMB0GA1UdDgQWBBTerY/qgQEm
QEJ1eH8tUuk547ilODAMBgNVHRMBAf8EAjAAMEMGA1UdIwQ8MDqAFN6tj+qBASZA
QnV4fy1S6TnjuKU4oRikFjAUMRIwEAYDVQQDDAlwdWJsaXNoZXKCCGIIVqcIC2th
MA4GA1UdDwEB/wQEAwIC9DAgBgNVHSUBAf8EFjAUBggrBgEFBQcDAQYIKwYBBQUH
AwIwOAYDVR0RBDEwL4YidXJuOnB1Ymxpc2hlcjpwdWJsaXNoZXI6bWljcm9zb2Z0
OoIJcHVibGlzaGVyMA0GCSqGSIb3DQEBCwUAA4IBAQCV1yoSy2Bx/tCjQv0LKY0C
nEKiHbRhHeBa8Vea+EVYooSlq7Hv7uP/JkeI2y9eLj20w81DBq4J93DVpdb0xfgJ
RMKdHvp4OhOh26p0/AkMjOy6olspmV+Ds7BKixZ2k057/7I6MjLCPRxSlMtHXpZz
SoGCuEpa5FbLPSL8giX/oUeFFP5TQ+T2PfU7y+AZlfG2Hw6zcJfItfMbq8wmda0o
591f/rs51Kpsv1DAxMJbwlACNJgMP6UMZPXh/2JtTbFykm9RF50cUnVvkYnggNgW
EgSq+0EOqWOwdPQEbFLi+fxVNSWbxnfGqSI9jlhdHyyTibaP8tZQrFS89VThHfsk
-----END CERTIFICATE-----

Certificate:
    Data:
        Version: 3 (0x2)
        Serial Number:
            62:08:56:a7:08:0b:6b:61
        Signature Algorithm: sha256WithRSAEncryption
        Issuer: CN = publisher
        Validity
            Not Before: Jun 23 08:58:51 2020 GMT
            Not After : Jun 23 08:58:51 2021 GMT
        Subject: CN = publisher
        Subject Public Key Info:
            Public Key Algorithm: rsaEncryption
                RSA Public-Key: (2048 bit)
                Modulus:
                    00:d3:4b:9d:9e:bb:22:51:f5:b4:e3:7f:60:82:a3:
                    21:07:0c:ad:e7:8b:03:23:c2:9d:ed:14:a6:50:82:
                    08:b1:fc:86:e8:ad:2f:c9:a4:33:3e:cc:ed:70:7e:
                    0e:72:ec:53:aa:8f:c7:f8:2b:59:be:dd:25:32:24:
                    81:ee:93:d9:c3:a3:91:a7:6b:b3:ef:58:4d:63:1c:
                    81:a3:26:ea:c7:ab:64:88:fb:20:28:d7:db:70:50:
                    2f:26:bf:83:73:9a:1e:93:ba:5a:6e:b0:e3:5e:53:
                    2e:f0:da:98:2c:e5:cf:71:85:2e:d3:2d:96:b8:04:
                    19:8f:b3:aa:41:55:8e:c8:69:5a:a5:89:aa:47:6f:
                    e0:bc:4b:69:47:2b:59:74:6d:32:8e:de:cb:84:e4:
                    9c:73:5d:93:d9:31:96:6b:22:5c:16:c3:f8:12:72:
                    1c:d2:82:2c:0f:66:1f:6a:47:b7:4b:f2:51:1c:1a:
                    de:9e:0a:af:4b:3b:ba:99:88:00:c1:84:15:1c:1d:
                    46:c4:22:f0:d7:4c:b5:1f:6b:4a:f5:71:14:1c:7a:
                    ae:68:71:0a:fc:d3:4f:91:36:6d:a7:ce:ce:0a:0f:
                    55:b6:a5:42:2c:97:92:8f:ff:63:a6:3b:15:13:3d:
                    55:9b:ae:5a:dd:62:42:0f:a7:cf:83:f1:b0:65:26:
                    a0:e9
                Exponent: 65537 (0x10001)
        X509v3 extensions:
            X509v3 Subject Key Identifier:
                DE:AD:8F:EA:81:01:26:40:42:75:78:7F:2D:52:E9:39:E3:B8:A5:38
            X509v3 Basic Constraints: critical
                CA:FALSE
            X509v3 Authority Key Identifier:
                keyid:DE:AD:8F:EA:81:01:26:40:42:75:78:7F:2D:52:E9:39:E3:B8:A5:38
                DirName:/CN=publisher
                serial:62:08:56:A7:08:0B:6B:61
            X509v3 Key Usage: critical
                Digital Signature, Non Repudiation, Key Encipherment, Data Encipherment, Certificate Sign
            X509v3 Extended Key Usage: critical
                TLS Web Server Authentication, TLS Web Client Authentication
            X509v3 Subject Alternative Name:
                URI:urn:publisher:publisher:microsoft:, DNS:publisher
    Signature Algorithm: sha256WithRSAEncryption
         95:d7:2a:12:cb:60:71:fe:d0:a3:42:fd:0b:29:8d:02:9c:42:
         a2:1d:b4:61:1d:e0:5a:f1:57:9a:f8:45:58:a2:84:a5:ab:b1:
         ef:ee:e3:ff:26:47:88:db:2f:5e:2e:3d:b4:c3:cd:43:06:ae:
         09:f7:70:d5:a5:d6:f4:c5:f8:09:44:c2:9d:1e:fa:78:3a:13:
         a1:db:aa:74:fc:09:0c:8c:ec:ba:a2:5b:29:99:5f:83:b3:b0:
         4a:8b:16:76:93:4e:7b:ff:b2:3a:32:32:c2:3d:1c:52:94:cb:
         47:5e:96:73:4a:81:82:b8:4a:5a:e4:56:cb:3d:22:fc:82:25:
         ff:a1:47:85:14:fe:53:43:e4:f6:3d:f5:3b:cb:e0:19:95:f1:
         b6:1f:0e:b3:70:97:c8:b5:f3:1b:ab:cc:26:75:ad:28:e7:dd:
         5f:fe:bb:39:d4:aa:6c:bf:50:c0:c4:c2:5b:c2:50:02:34:98:
         0c:3f:a5:0c:64:f5:e1:ff:62:6d:4d:b1:72:92:6f:51:17:9d:
         1c:52:75:6f:91:89:e0:80:d8:16:12:04:aa:fb:41:0e:a9:63:
         b0:74:f4:04:6c:52:e2:f9:fc:55:35:25:9b:c6:77:c6:a9:22:
         3d:8e:58:5d:1f:2c:93:89:b6:8f:f2:d6:50:ac:54:bc:f5:54:
         e1:1d:fb:24