-----BEGIN CERTIFICATE-----
MIICiDCCAfGgAwIBAgIBBTANBgkqhkiG9w0BAQUFADCBiDELMAkGA1UEBhMCREUx
CzAJBgNVBAgTAlNIMRMwEQYDVQQHEwpTY2hlbmVmZWxkMSUwIwYDVQQKExxpbnJh
eSBJbmR1c3RyaWVzb2Z0d2FyZSBHbWJIMQkwBwYDVQQLEwAxJTAjBgNVBAMTHGlu
cmF5IEluZHVzdHJpZXNvZnR3YXJlIEdtYkgwIBcNMTIwMjAyMDg1NDAyWhgPMjI4
MzAyMjEwODU0MDJaMIGIMQswCQYDVQQGEwJERTELMAkGA1UECBMCU0gxEzARBgNV
BAcTClNjaGVuZWZlbGQxJTAjBgNVBAoTHGlucmF5IEluZHVzdHJpZXNvZnR3YXJl
IEdtYkgxCTAHBgNVBAsTADElMCMGA1UEAxMcaW5yYXkgSW5kdXN0cmllc29mdHdh
cmUgR21iSDCBnzANBgkqhkiG9w0BAQEFAAOBjQAwgYkCgYEAi+ch93QtR/r+AW4f
6KEcdHnmCh7lacvY0Fu1++WOd4UuXrXu2iINrUeE1d8ZhzkHqf37HHUsEmNjupG5
4894Eec/TmajcQmPBI/xyMesNKnMlXu2VQaiOtqFRzUsdy7Iy4kgc8m7qIXmeQ8q
dQ2LeQWhFAVVaQpJiveDlnWU1RsCAwEAATANBgkqhkiG9w0BAQUFAAOBgQAU9DmC
FW8zmPpY20/9VAWAwm5Tl0jmoCTAca7b57FfSzDyoCJhgOTXj93FrU39k91E3O72
KKKt8bwJQYb2fUwqMEttN0NshABWRBYvBNCzzeL9LAu/vpHBDHP1IeMi1g9rbxGs
UIhBlnXv7PYgAvee5HDa4kkzX+cTXVBPv7N7cQ==
-----END CERTIFICATE-----

Certificate:
    Data:
        Version: 3 (0x2)
        Serial Number: 5 (0x5)
        Signature Algorithm: sha1WithRSAEncryption
        Issuer: C = DE, ST = SH, L = Schenefeld, O = inray Industriesoftware GmbH, OU = , CN = inray Industriesoftware GmbH
        Validity
            Not Before: Feb  2 08:54:02 2012 GMT
            Not After : Feb 21 08:54:02 2283 GMT
        Subject: C = DE, ST = SH, L = Schenefeld, O = inray Industriesoftware GmbH, OU = , CN = inray Industriesoftware GmbH
        Subject Public Key Info:
            Public Key Algorithm: rsaEncryption
                RSA Public-Key: (1024 bit)
                Modulus:
                    00:8b:e7:21:f7:74:2d:47:fa:fe:01:6e:1f:e8:a1:
                    1c:74:79:e6:0a:1e:e5:69:cb:d8:d0:5b:b5:fb:e5:
                    8e:77:85:2e:5e:b5:ee:da:22:0d:ad:47:84:d5:df:
                    19:87:39:07:a9:fd:fb:1c:75:2c:12:63:63:ba:91:
                    b9:e3:cf:78:11:e7:3f:4e:66:a3:71:09:8f:04:8f:
                    f1:c8:c7:ac:34:a9:cc:95:7b:b6:55:06:a2:3a:da:
                    85:47:35:2c:77:2e:c8:cb:89:20:73:c9:bb:a8:85:
                    e6:79:0f:2a:75:0d:8b:79:05:a1:14:05:55:69:0a:
                    49:8a:f7:83:96:75:94:d5:1b
                Exponent: 65537 (0x10001)
    Signature Algorithm: sha1WithRSAEncryption
         14:f4:39:82:15:6f:33:98:fa:58:db:4f:fd:54:05:80:c2:6e:
         53:97:48:e6:a0:24:c0:71:ae:db:e7:b1:5f:4b:30:f2:a0:22:
         61:80:e4:d7:8f:dd:c5:ad:4d:fd:93:dd:44:dc:ee:f6:28:a2:
         ad:f1:bc:09:41:86:f6:7d:4c:2a:30:4b:6d:37:43:6c:84:00:
         56:44:16:2f:04:d0:b3:cd:e2:fd:2c:0b:bf:be:91:c1:0c:73:
         f5:21:e3:22:d6:0f:6b:6f:11:ac:50:88:41:96:75:ef:ec:f6:
         20:02:f7:9e:e4:70:da:e2:49:33:5f:e7:13:5d:50:4f:bf:b3:
         7b:71