Certificate:
    Data:
        Version: 3 (0x2)
        Serial Number: 4121 (0x1019)
    Signature Algorithm: sha256WithRSAEncryption
        Issuer: C=FR, ST=IDF, L=Paris, O=Local NODE-OPCUA Certificate Authority, CN=NodeOPCUA-CA
        Validity
            Not Before: Sep  6 06:05:34 2022 GMT
            Not After : Sep  6 06:05:34 2023 GMT
        Subject: C=FR, O=NodeOPCUA, CN=NodeOPCUA
        Subject Public Key Info:
            Public Key Algorithm: rsaEncryption
                Public-Key: (2048 bit)
                Modulus:
                    00:d3:31:70:17:5c:d9:11:ea:e7:46:21:f9:90:22:
                    6e:d7:b4:82:74:8d:2f:dd:eb:75:35:1a:c1:c6:58:
                    bb:88:56:84:20:e2:12:6c:78:40:fa:53:df:85:2f:
                    35:82:c6:63:4b:15:78:38:d0:75:57:68:39:15:59:
                    94:90:86:cd:d6:89:b3:68:dd:7f:30:30:78:4f:ff:
                    32:6c:80:20:64:ea:0f:bd:9a:07:df:d2:df:fa:20:
                    99:60:66:d1:df:71:94:09:f7:ab:14:56:32:04:b7:
                    8e:4d:bf:59:26:25:f5:bc:46:51:df:df:ce:7e:e4:
                    03:2d:e2:4c:2c:4d:16:5b:c6:02:6a:01:30:8f:bd:
                    bd:5a:b2:e4:74:18:21:5e:a7:37:17:8e:f1:70:bf:
                    f7:a4:39:40:47:7f:cd:5a:6d:e4:44:50:d3:86:01:
                    09:4e:67:e3:fb:59:36:b5:32:5c:18:4c:e6:59:6a:
                    4e:16:e6:6c:d1:d8:ec:e8:4b:c1:82:ff:bf:e3:cb:
                    d4:57:f0:df:cd:62:b6:ae:68:02:e3:2c:8a:06:ae:
                    5f:8b:c5:37:01:9a:a2:85:52:04:02:c4:1b:7a:05:
                    fa:ec:38:52:b2:2a:e5:82:8c:0a:60:f4:71:2d:a2:
                    cd:d8:29:09:b6:90:74:f3:b1:af:70:99:29:d7:97:
                    33:cf
                Exponent: 65537 (0x10001)
        X509v3 extensions:
            X509v3 Basic Constraints: critical
                CA:FALSE
            X509v3 Subject Key Identifier: 
                FF:59:39:AD:5B:26:ED:79:8F:0E:C0:5B:7B:E4:5B:69:25:FB:C0:03
            X509v3 Authority Key Identifier: 
                keyid:FD:3E:31:E6:2B:1E:2C:3A:96:98:8D:E7:4B:38:68:66:04:8C:4C:C6
                DirName:/C=FR/ST=IDF/L=Paris/O=Local NODE-OPCUA Certificate Authority/CN=NodeOPCUA-CA
                serial:BD:AE:EC:E6:11:94:F5:03

            X509v3 Subject Alternative Name: 
                URI:urn:DESKTOP-F0VVBQ0:NodeOPCUA-Server, DNS:DESKTOP-F0VVBQ0, IP Address:127.0.0.1
            Netscape Comment: 
                OpenSSL Generated Certificate
            X509v3 Key Usage: critical
                Digital Signature, Non Repudiation, Key Encipherment, Data Encipherment, Key Agreement, Certificate Sign
            X509v3 Extended Key Usage: critical
                TLS Web Server Authentication, TLS Web Client Authentication
    Signature Algorithm: sha256WithRSAEncryption
         1c:3e:e9:8e:36:23:8e:53:e7:25:58:94:22:43:4e:8a:ee:98:
         48:e4:f0:7e:19:30:de:04:d6:fa:b9:60:28:7e:6b:2c:bf:68:
         5a:a6:1c:df:60:ff:68:40:47:86:d5:b1:6c:fb:1f:6a:f0:9e:
         23:ed:34:d9:29:f7:d3:f9:22:d6:26:e5:fa:ab:ba:66:3b:35:
         7d:45:1e:99:b6:d4:2c:da:47:7a:7d:0f:ad:4c:9b:4b:49:6b:
         6e:ce:82:2d:b4:f8:76:d0:a7:af:ad:3e:d6:c6:87:c1:c8:b5:
         e1:79:ca:f8:17:01:5b:33:ee:94:77:4a:84:2e:a2:bc:a9:53:
         d0:44:df:2b:31:4c:96:a5:b7:59:ff:f8:10:a7:0a:cc:b2:3f:
         d0:d9:3f:58:66:33:2e:8e:52:08:b7:9b:65:2b:73:4c:73:b9:
         57:a4:52:3c:bb:b7:d4:ec:21:1b:74:8c:b8:62:d3:96:91:2e:
         ed:8b:0f:59:59:1e:e5:02:43:12:72:26:ed:c3:98:b7:99:8b:
         b3:bb:d5:aa:11:fc:a9:cd:6c:40:07:d0:43:e0:20:51:c0:f0:
         55:83:c3:53:42:2b:da:be:ea:f6:78:7a:d7:80:78:ae:50:62:
         20:d6:cb:20:b7:88:20:df:32:c4:a3:dd:c7:07:b0:f4:f9:39:
         d9:78:76:88
-----BEGIN CERTIFICATE-----
MIIEqzCCA5OgAwIBAgICEBkwDQYJKoZIhvcNAQELBQAwczELMAkGA1UEBhMCRlIx
DDAKBgNVBAgTA0lERjEOMAwGA1UEBxMFUGFyaXMxLzAtBgNVBAoTJkxvY2FsIE5P
REUtT1BDVUEgQ2VydGlmaWNhdGUgQXV0aG9yaXR5MRUwEwYDVQQDEwxOb2RlT1BD
VUEtQ0EwIhgPMjAyMjA5MDYwNjA1MzRaGA8yMDIzMDkwNjA2MDUzNFowNTELMAkG
A1UEBhMCRlIxEjAQBgNVBAoMCU5vZGVPUENVQTESMBAGA1UEAwwJTm9kZU9QQ1VB
MIIBIjANBgkqhkiG9w0BAQEFAAOCAQ8AMIIBCgKCAQEA0zFwF1zZEernRiH5kCJu
17SCdI0v3et1NRrBxli7iFaEIOISbHhA+lPfhS81gsZjSxV4ONB1V2g5FVmUkIbN
1omzaN1/MDB4T/8ybIAgZOoPvZoH39Lf+iCZYGbR33GUCferFFYyBLeOTb9ZJiX1
vEZR39/OfuQDLeJMLE0WW8YCagEwj729WrLkdBghXqc3F47xcL/3pDlAR3/NWm3k
RFDThgEJTmfj+1k2tTJcGEzmWWpOFuZs0djs6EvBgv+/48vUV/DfzWK2rmgC4yyK
Bq5fi8U3AZqihVIEAsQbegX67DhSsirlgowKYPRxLaLN2CkJtpB087GvcJkp15cz
zwIDAQABo4IBgTCCAX0wDAYDVR0TAQH/BAIwADAdBgNVHQ4EFgQU/1k5rVsm7XmP
DsBbe+RbaSX7wAMwgaUGA1UdIwSBnTCBmoAU/T4x5iseLDqWmI3nSzhoZgSMTMah
d6R1MHMxCzAJBgNVBAYTAkZSMQwwCgYDVQQIEwNJREYxDjAMBgNVBAcTBVBhcmlz
MS8wLQYDVQQKEyZMb2NhbCBOT0RFLU9QQ1VBIENlcnRpZmljYXRlIEF1dGhvcml0
eTEVMBMGA1UEAxMMTm9kZU9QQ1VBLUNBggkAva7s5hGU9QMwRgYDVR0RBD8wPYYk
dXJuOkRFU0tUT1AtRjBWVkJRMDpOb2RlT1BDVUEtU2VydmVygg9ERVNLVE9QLUYw
VlZCUTCHBH8AAAEwLAYJYIZIAYb4QgENBB8WHU9wZW5TU0wgR2VuZXJhdGVkIENl
cnRpZmljYXRlMA4GA1UdDwEB/wQEAwIC/DAgBgNVHSUBAf8EFjAUBggrBgEFBQcD
AQYIKwYBBQUHAwIwDQYJKoZIhvcNAQELBQADggEBABw+6Y42I45T5yVYlCJDToru
mEjk8H4ZMN4E1vq5YCh+ayy/aFqmHN9g/2hAR4bVsWz7H2rwniPtNNkp99P5ItYm
5fqrumY7NX1FHpm21CzaR3p9D61Mm0tJa27Ogi20+HbQp6+tPtbGh8HIteF5yvgX
AVsz7pR3SoQuorypU9BE3ysxTJalt1n/+BCnCsyyP9DZP1hmMy6OUgi3m2Urc0xz
uVekUjy7t9TsIRt0jLhi05aRLu2LD1lZHuUCQxJyJu3DmLeZi7O71aoR/KnNbEAH
0EPgIFHA8FWDw1NCK9q+6vZ4eteAeK5QYiDWyyC3iCDfMsSj3ccHsPT5Odl4dog=
-----END CERTIFICATE-----
-----BEGIN CERTIFICATE-----
MIIE3TCCA8WgAwIBAgIJAL2u7OYRlPUDMA0GCSqGSIb3DQEBCwUAMHMxCzAJBgNV
BAYTAkZSMQwwCgYDVQQIEwNJREYxDjAMBgNVBAcTBVBhcmlzMS8wLQYDVQQKEyZM
b2NhbCBOT0RFLU9QQ1VBIENlcnRpZmljYXRlIEF1dGhvcml0eTEVMBMGA1UEAxMM
Tm9kZU9QQ1VBLUNBMB4XDTIyMDkwNzA2MDUzNloXDTMyMDkwNDA2MDUzNlowczEL
MAkGA1UEBhMCRlIxDDAKBgNVBAgTA0lERjEOMAwGA1UEBxMFUGFyaXMxLzAtBgNV
BAoTJkxvY2FsIE5PREUtT1BDVUEgQ2VydGlmaWNhdGUgQXV0aG9yaXR5MRUwEwYD
VQQDEwxOb2RlT1BDVUEtQ0EwggEiMA0GCSqGSIb3DQEBAQUAA4IBDwAwggEKAoIB
AQDtcxO92RYbDLJIYjDnr0MvH26DTX4nuSK4TQpBl5qqblkDi/Zuh+LFOj/A2xOZ
hq5iFBKcbJXegTejUuvjAFNdsEmJB1TJuMmAJ0ic9X9XUO7x1fTL8WfkRaT6sXom
2Aulb1suYM74R3pGUvKtQnN0AQSk2NsTEcLiHbEiZxjsVEnJ7iXUCdCx8L3dILnJ
uLCqHUizURnwfYqcnwQ/TV40/kwKL1w7ljkQ6L74DSOZZd3vEdCXQeUFOttuPQVG
vCC8ERL8rXuHqvtzyew01mY9bUIZBkmIU+8MCabyr4TFXJWh9dY04mMKKa7CXPS7
ljKmPMMXQSnxT8cC8B8SJS6LAgMBAAGjggFyMIIBbjAdBgNVHQ4EFgQU/T4x5ise
LDqWmI3nSzhoZgSMTMYwgaUGA1UdIwSBnTCBmoAU/T4x5iseLDqWmI3nSzhoZgSM
TMahd6R1MHMxCzAJBgNVBAYTAkZSMQwwCgYDVQQIEwNJREYxDjAMBgNVBAcTBVBh
cmlzMS8wLQYDVQQKEyZMb2NhbCBOT0RFLU9QQ1VBIENlcnRpZmljYXRlIEF1dGhv
cml0eTEVMBMGA1UEAxMMTm9kZU9QQ1VBLUNBggkAva7s5hGU9QMwDAYDVR0TBAUw
AwEB/zAOBgNVHQ8BAf8EBAMCAQYwVwYJYIZIAYb4QgENBEoWSENBIENlcnRpZmlj
YXRlIGdlbmVyYXRlZCBieSBOb2RlLU9QQ1VBIENlcnRpZmljYXRlIHV0aWxpdHkg
dXNpbmcgb3BlbnNzbDAuBgNVHR8EJzAlMCOgIaAfhh1odHRwOi8vbG9jYWxob3N0
Ojg5MDAvY3JsLnBlbTANBgkqhkiG9w0BAQsFAAOCAQEA0MlJKRoKqdzGoefjiDu/
diTqd128GUOIt83sNjFIuE/E2aWytHJHRoLG81hWF2DDpGt/KziMAZX22g+8D/iX
zhCyTdjGm2kGKPaSAhsoUB8IT7YlC627PT1Pzntq896WXcWqC7o/D8442naR+5Nv
AJef6vw9lU0XIEwVFU8lHApn5gaw2NFXbEhzD6igZXSgqbTDU8hDjQxJ4C701HyN
pBbwP5k+A6RZguDE1vugOyTzqjtuUBXmhdkFlKKT+gplQvR78+Kgt1lJyNSUtiPV
d+DJ7u6fEHWMuJaJ2we9lxnd8HCFdBTAAjXbZbu0BhK9oxbwgtxlxvlIfWQByMXO
cQ==
-----END CERTIFICATE-----
