Certificate:
    Data:
        Version: 3 (0x2)
        Serial Number: 4096 (0x1000)
    Signature Algorithm: sha256WithRSAEncryption
        Issuer: C=FR, ST=IDF, L=Paris, O=Local NODE-OPCUA Certificate Authority, CN=NodeOPCUA-CA
        Validity
            Not Before: May 10 13:21:45 2019 GMT
            Not After : Mar  5 14:21:45 2020 GMT
        Subject: C=FR, O=NodeOPCUA, CN=NodeOPCUA
        Subject Public Key Info:
            Public Key Algorithm: rsaEncryption
                Public-Key: (2048 bit)
                Modulus:
                    00:d6:69:3c:2a:67:56:60:7a:98:27:a8:f7:86:8e:
                    ac:59:4f:45:19:7b:7e:92:e0:d5:01:4e:64:03:f3:
                    73:42:a1:a4:ae:a7:16:91:45:8d:33:07:cf:3d:de:
                    0e:70:51:e7:e1:91:a5:1f:6d:65:90:e5:de:de:e4:
                    bb:6f:c1:db:85:21:91:42:b2:86:34:05:a4:7c:6d:
                    c8:93:2e:08:ad:51:99:fa:35:c2:a5:4b:50:d1:c7:
                    51:27:89:1d:a8:08:28:66:20:8a:f0:af:48:fc:23:
                    96:10:1d:13:af:e7:04:48:bc:8d:96:0e:e4:ca:ed:
                    49:18:cc:35:33:f4:13:a2:27:07:fc:ff:5f:87:c7:
                    8e:35:e7:f5:ba:6b:2c:68:7e:89:40:b1:94:ba:c6:
                    c8:0d:6e:ac:c9:a2:51:c2:da:40:2e:83:4b:2e:19:
                    2c:fc:72:e6:ce:b3:fe:d5:76:bd:bb:6d:2e:72:47:
                    c7:fb:8c:3e:f5:ed:7a:3b:66:7c:a1:86:aa:69:ca:
                    d2:0a:71:dd:68:eb:22:66:5a:30:ab:05:aa:5d:31:
                    81:cc:ed:3f:68:4e:7b:a2:a1:8a:15:d1:c6:f0:56:
                    50:55:ca:72:23:eb:44:ee:25:bf:03:84:d9:7e:a8:
                    51:03:0a:69:ba:2d:97:ff:75:6f:12:3a:71:22:4b:
                    93:b5
                Exponent: 65537 (0x10001)
        X509v3 extensions:
            X509v3 Basic Constraints: critical
                CA:FALSE
            X509v3 Subject Key Identifier: 
                B2:75:61:AF:63:66:27:96:94:52:3F:BD:03:DB:87:01:71:DD:94:19
            X509v3 Authority Key Identifier: 
                keyid:EA:DC:45:27:E6:73:8E:A8:91:9F:83:F4:F7:F6:C9:E9:EF:AE:26:89
                DirName:/C=FR/ST=IDF/L=Paris/O=Local NODE-OPCUA Certificate Authority/CN=NodeOPCUA-CA
                serial:B7:E5:64:1E:5C:CF:62:8D

            X509v3 Subject Alternative Name: 
                URI:SOMEURI
            Netscape Comment: 
                OpenSSL Generated Certificate
            X509v3 Key Usage: critical
                Digital Signature, Non Repudiation, Key Encipherment, Data Encipherment, Key Agreement, Certificate Sign
            X509v3 Extended Key Usage: critical
                TLS Web Server Authentication, TLS Web Client Authentication
    Signature Algorithm: sha256WithRSAEncryption
         1c:58:45:4e:74:3c:54:3f:e8:bd:ec:6f:05:d5:3a:7a:e6:39:
         d8:a7:31:5b:95:88:df:3b:d2:de:10:a3:ff:f9:ed:bb:c0:ec:
         96:1b:1b:b7:a9:76:8e:6c:cd:fe:47:ad:dc:fd:88:dd:f8:70:
         0c:ee:81:cc:d5:4d:bd:a4:34:71:84:62:9c:0f:42:7d:39:39:
         47:aa:70:c9:dc:74:4c:50:7c:1d:28:a4:fa:ca:73:9e:1e:43:
         b6:33:49:9a:89:05:03:8d:b8:ea:b3:38:08:54:00:51:7c:43:
         d6:fc:2a:56:49:61:3d:32:27:8b:d3:f2:49:dc:7a:0d:9d:67:
         e9:a7:da:be:9e:92:7c:90:de:2c:00:c0:21:ce:2c:fa:37:23:
         78:88:19:3b:f6:c1:5e:80:b9:3e:6c:2b:bf:1a:e4:20:ca:15:
         4d:34:f2:ff:22:f5:f2:9f:bf:bf:cf:56:77:f5:6a:f1:b4:3d:
         47:5d:05:fa:7a:d3:90:91:b2:c9:4a:44:36:96:7d:6a:48:f5:
         0a:1b:7e:14:c8:22:1a:b6:4b:11:f0:a6:51:92:70:4b:11:ad:
         d1:3a:1f:a0:b3:ef:dd:dc:ac:22:99:09:c5:97:a0:be:f1:49:
         1f:c5:4b:3d:a3:38:a4:07:6d:a5:e1:41:1b:06:53:c0:aa:1d:
         b2:c1:40:3b
-----BEGIN CERTIFICATE-----
MIIEdzCCA1+gAwIBAgICEAAwDQYJKoZIhvcNAQELBQAwczELMAkGA1UEBhMCRlIx
DDAKBgNVBAgTA0lERjEOMAwGA1UEBxMFUGFyaXMxLzAtBgNVBAoTJkxvY2FsIE5P
REUtT1BDVUEgQ2VydGlmaWNhdGUgQXV0aG9yaXR5MRUwEwYDVQQDEwxOb2RlT1BD
VUEtQ0EwIhgPMjAxOTA1MTAxMzIxNDVaGA8yMDIwMDMwNTE0MjE0NVowNTELMAkG
A1UEBhMCRlIxEjAQBgNVBAoMCU5vZGVPUENVQTESMBAGA1UEAwwJTm9kZU9QQ1VB
MIIBIjANBgkqhkiG9w0BAQEFAAOCAQ8AMIIBCgKCAQEA1mk8KmdWYHqYJ6j3ho6s
WU9FGXt+kuDVAU5kA/NzQqGkrqcWkUWNMwfPPd4OcFHn4ZGlH21lkOXe3uS7b8Hb
hSGRQrKGNAWkfG3Iky4IrVGZ+jXCpUtQ0cdRJ4kdqAgoZiCK8K9I/COWEB0Tr+cE
SLyNlg7kyu1JGMw1M/QToicH/P9fh8eONef1umssaH6JQLGUusbIDW6syaJRwtpA
LoNLLhks/HLmzrP+1Xa9u20uckfH+4w+9e16O2Z8oYaqacrSCnHdaOsiZlowqwWq
XTGBzO0/aE57oqGKFdHG8FZQVcpyI+tE7iW/A4TZfqhRAwppui2X/3VvEjpxIkuT
tQIDAQABo4IBTTCCAUkwDAYDVR0TAQH/BAIwADAdBgNVHQ4EFgQUsnVhr2NmJ5aU
Uj+9A9uHAXHdlBkwgaUGA1UdIwSBnTCBmoAU6txFJ+ZzjqiRn4P09/bJ6e+uJomh
d6R1MHMxCzAJBgNVBAYTAkZSMQwwCgYDVQQIEwNJREYxDjAMBgNVBAcTBVBhcmlz
MS8wLQYDVQQKEyZMb2NhbCBOT0RFLU9QQ1VBIENlcnRpZmljYXRlIEF1dGhvcml0
eTEVMBMGA1UEAxMMTm9kZU9QQ1VBLUNBggkAt+VkHlzPYo0wEgYDVR0RBAswCYYH
U09NRVVSSTAsBglghkgBhvhCAQ0EHxYdT3BlblNTTCBHZW5lcmF0ZWQgQ2VydGlm
aWNhdGUwDgYDVR0PAQH/BAQDAgL8MCAGA1UdJQEB/wQWMBQGCCsGAQUFBwMBBggr
BgEFBQcDAjANBgkqhkiG9w0BAQsFAAOCAQEAHFhFTnQ8VD/ovexvBdU6euY52Kcx
W5WI3zvS3hCj//ntu8Dslhsbt6l2jmzN/ket3P2I3fhwDO6BzNVNvaQ0cYRinA9C
fTk5R6pwydx0TFB8HSik+spznh5DtjNJmokFA4246rM4CFQAUXxD1vwqVklhPTIn
i9PySdx6DZ1n6afavp6SfJDeLADAIc4s+jcjeIgZO/bBXoC5PmwrvxrkIMoVTTTy
/yL18p+/v89Wd/Vq8bQ9R10F+nrTkJGyyUpENpZ9akj1Cht+FMgiGrZLEfCmUZJw
SxGt0TofoLPv3dysIpkJxZegvvFJH8VLPaM4pAdtpeFBGwZTwKodssFAOw==
-----END CERTIFICATE-----
