Certificate:
    Data:
        Version: 3 (0x2)
        Serial Number: 4098 (0x1002)
    Signature Algorithm: sha256WithRSAEncryption
        Issuer: C=FR, ST=IDF, L=Paris, O=Local NODE-OPCUA Certificate Authority, CN=NodeOPCUA-CA
        Validity
            Not Before: May  8 13:21:45 2020 GMT
            Not After : May 18 13:21:45 2020 GMT
        Subject: C=FR, O=NodeOPCUA, CN=NodeOPCUA
        Subject Public Key Info:
            Public Key Algorithm: rsaEncryption
                Public-Key: (2048 bit)
                Modulus:
                    00:d6:69:3c:2a:67:56:60:7a:98:27:a8:f7:86:8e:
                    ac:59:4f:45:19:7b:7e:92:e0:d5:01:4e:64:03:f3:
                    73:42:a1:a4:ae:a7:16:91:45:8d:33:07:cf:3d:de:
                    0e:70:51:e7:e1:91:a5:1f:6d:65:90:e5:de:de:e4:
                    bb:6f:c1:db:85:21:91:42:b2:86:34:05:a4:7c:6d:
                    c8:93:2e:08:ad:51:99:fa:35:c2:a5:4b:50:d1:c7:
                    51:27:89:1d:a8:08:28:66:20:8a:f0:af:48:fc:23:
                    96:10:1d:13:af:e7:04:48:bc:8d:96:0e:e4:ca:ed:
                    49:18:cc:35:33:f4:13:a2:27:07:fc:ff:5f:87:c7:
                    8e:35:e7:f5:ba:6b:2c:68:7e:89:40:b1:94:ba:c6:
                    c8:0d:6e:ac:c9:a2:51:c2:da:40:2e:83:4b:2e:19:
                    2c:fc:72:e6:ce:b3:fe:d5:76:bd:bb:6d:2e:72:47:
                    c7:fb:8c:3e:f5:ed:7a:3b:66:7c:a1:86:aa:69:ca:
                    d2:0a:71:dd:68:eb:22:66:5a:30:ab:05:aa:5d:31:
                    81:cc:ed:3f:68:4e:7b:a2:a1:8a:15:d1:c6:f0:56:
                    50:55:ca:72:23:eb:44:ee:25:bf:03:84:d9:7e:a8:
                    51:03:0a:69:ba:2d:97:ff:75:6f:12:3a:71:22:4b:
                    93:b5
                Exponent: 65537 (0x10001)
        X509v3 extensions:
            X509v3 Basic Constraints: critical
                CA:FALSE
            X509v3 Subject Key Identifier: 
                B2:75:61:AF:63:66:27:96:94:52:3F:BD:03:DB:87:01:71:DD:94:19
            X509v3 Authority Key Identifier: 
                keyid:EA:DC:45:27:E6:73:8E:A8:91:9F:83:F4:F7:F6:C9:E9:EF:AE:26:89
                DirName:/C=FR/ST=IDF/L=Paris/O=Local NODE-OPCUA Certificate Authority/CN=NodeOPCUA-CA
                serial:B7:E5:64:1E:5C:CF:62:8D

            X509v3 Subject Alternative Name: 
                URI:SOMEURI
            Netscape Comment: 
                OpenSSL Generated Certificate
            X509v3 Key Usage: critical
                Digital Signature, Non Repudiation, Key Encipherment, Data Encipherment, Key Agreement, Certificate Sign
            X509v3 Extended Key Usage: critical
                TLS Web Server Authentication, TLS Web Client Authentication
    Signature Algorithm: sha256WithRSAEncryption
         53:1a:33:22:30:fb:6c:ae:15:34:ef:8d:ac:5d:67:db:6b:7b:
         59:a8:77:b7:6c:fa:83:48:d1:6d:eb:e1:0c:bc:2e:2a:03:9a:
         a9:8b:6a:1d:e1:37:cb:cf:9e:4c:ba:8e:70:55:91:0d:9f:00:
         2e:a2:b1:ff:10:40:19:a7:f8:32:7a:42:e1:11:3d:6e:1b:49:
         25:d7:6f:00:57:d8:e6:50:c7:23:30:33:50:87:b5:fd:28:83:
         6a:24:79:f0:53:0f:2c:ed:dc:eb:98:0e:24:e7:7e:17:81:d4:
         14:ed:5e:34:d5:6b:6f:c7:56:85:90:22:10:fa:69:34:d7:7b:
         0b:4d:72:9f:3c:a7:9b:bb:cf:bd:96:97:aa:55:13:a7:b0:72:
         c1:08:c0:d8:ef:e0:76:7f:46:f2:35:77:bd:fc:02:c8:a4:50:
         ca:8b:f0:f5:0f:98:da:fc:ce:a5:9b:08:b6:32:27:00:a6:31:
         d8:2b:d1:90:ce:9a:e5:cf:eb:78:6f:b1:ac:9f:ae:44:f8:41:
         43:da:34:eb:a1:5b:28:08:a7:4c:69:d6:0b:bb:89:7e:77:46:
         9d:d9:ca:60:b2:6d:dd:73:e4:27:ab:15:ee:09:b1:71:f2:8c:
         e8:80:5e:da:67:88:10:3a:fe:c7:68:ea:2e:4a:6d:94:6c:61:
         30:cd:e3:be
-----BEGIN CERTIFICATE-----
MIIEdzCCA1+gAwIBAgICEAIwDQYJKoZIhvcNAQELBQAwczELMAkGA1UEBhMCRlIx
DDAKBgNVBAgTA0lERjEOMAwGA1UEBxMFUGFyaXMxLzAtBgNVBAoTJkxvY2FsIE5P
REUtT1BDVUEgQ2VydGlmaWNhdGUgQXV0aG9yaXR5MRUwEwYDVQQDEwxOb2RlT1BD
VUEtQ0EwIhgPMjAyMDA1MDgxMzIxNDVaGA8yMDIwMDUxODEzMjE0NVowNTELMAkG
A1UEBhMCRlIxEjAQBgNVBAoMCU5vZGVPUENVQTESMBAGA1UEAwwJTm9kZU9QQ1VB
MIIBIjANBgkqhkiG9w0BAQEFAAOCAQ8AMIIBCgKCAQEA1mk8KmdWYHqYJ6j3ho6s
WU9FGXt+kuDVAU5kA/NzQqGkrqcWkUWNMwfPPd4OcFHn4ZGlH21lkOXe3uS7b8Hb
hSGRQrKGNAWkfG3Iky4IrVGZ+jXCpUtQ0cdRJ4kdqAgoZiCK8K9I/COWEB0Tr+cE
SLyNlg7kyu1JGMw1M/QToicH/P9fh8eONef1umssaH6JQLGUusbIDW6syaJRwtpA
LoNLLhks/HLmzrP+1Xa9u20uckfH+4w+9e16O2Z8oYaqacrSCnHdaOsiZlowqwWq
XTGBzO0/aE57oqGKFdHG8FZQVcpyI+tE7iW/A4TZfqhRAwppui2X/3VvEjpxIkuT
tQIDAQABo4IBTTCCAUkwDAYDVR0TAQH/BAIwADAdBgNVHQ4EFgQUsnVhr2NmJ5aU
Uj+9A9uHAXHdlBkwgaUGA1UdIwSBnTCBmoAU6txFJ+ZzjqiRn4P09/bJ6e+uJomh
d6R1MHMxCzAJBgNVBAYTAkZSMQwwCgYDVQQIEwNJREYxDjAMBgNVBAcTBVBhcmlz
MS8wLQYDVQQKEyZMb2NhbCBOT0RFLU9QQ1VBIENlcnRpZmljYXRlIEF1dGhvcml0
eTEVMBMGA1UEAxMMTm9kZU9QQ1VBLUNBggkAt+VkHlzPYo0wEgYDVR0RBAswCYYH
U09NRVVSSTAsBglghkgBhvhCAQ0EHxYdT3BlblNTTCBHZW5lcmF0ZWQgQ2VydGlm
aWNhdGUwDgYDVR0PAQH/BAQDAgL8MCAGA1UdJQEB/wQWMBQGCCsGAQUFBwMBBggr
BgEFBQcDAjANBgkqhkiG9w0BAQsFAAOCAQEAUxozIjD7bK4VNO+NrF1n22t7Wah3
t2z6g0jRbevhDLwuKgOaqYtqHeE3y8+eTLqOcFWRDZ8ALqKx/xBAGaf4MnpC4RE9
bhtJJddvAFfY5lDHIzAzUIe1/SiDaiR58FMPLO3c65gOJOd+F4HUFO1eNNVrb8dW
hZAiEPppNNd7C01ynzynm7vPvZaXqlUTp7BywQjA2O/gdn9G8jV3vfwCyKRQyovw
9Q+Y2vzOpZsItjInAKYx2CvRkM6a5c/reG+xrJ+uRPhBQ9o066FbKAinTGnWC7uJ
fndGndnKYLJt3XPkJ6sV7gmxcfKM6IBe2meIEDr+x2jqLkptlGxhMM3jvg==
-----END CERTIFICATE-----
