Certificate:
    Data:
        Version: 3 (0x2)
        Serial Number: 4097 (0x1001)
    Signature Algorithm: sha256WithRSAEncryption
        Issuer: C=FR, ST=IDF, L=Paris, O=Local NODE-OPCUA Certificate Authority, CN=NodeOPCUA-CA
        Validity
            Not Before: May  9 13:21:45 2021 GMT
            Not After : Sep 24 13:21:45 2048 GMT
        Subject: C=FR, O=NodeOPCUA, CN=NodeOPCUA
        Subject Public Key Info:
            Public Key Algorithm: rsaEncryption
                Public-Key: (2048 bit)
                Modulus:
                    00:d6:69:3c:2a:67:56:60:7a:98:27:a8:f7:86:8e:
                    ac:59:4f:45:19:7b:7e:92:e0:d5:01:4e:64:03:f3:
                    73:42:a1:a4:ae:a7:16:91:45:8d:33:07:cf:3d:de:
                    0e:70:51:e7:e1:91:a5:1f:6d:65:90:e5:de:de:e4:
                    bb:6f:c1:db:85:21:91:42:b2:86:34:05:a4:7c:6d:
                    c8:93:2e:08:ad:51:99:fa:35:c2:a5:4b:50:d1:c7:
                    51:27:89:1d:a8:08:28:66:20:8a:f0:af:48:fc:23:
                    96:10:1d:13:af:e7:04:48:bc:8d:96:0e:e4:ca:ed:
                    49:18:cc:35:33:f4:13:a2:27:07:fc:ff:5f:87:c7:
                    8e:35:e7:f5:ba:6b:2c:68:7e:89:40:b1:94:ba:c6:
                    c8:0d:6e:ac:c9:a2:51:c2:da:40:2e:83:4b:2e:19:
                    2c:fc:72:e6:ce:b3:fe:d5:76:bd:bb:6d:2e:72:47:
                    c7:fb:8c:3e:f5:ed:7a:3b:66:7c:a1:86:aa:69:ca:
                    d2:0a:71:dd:68:eb:22:66:5a:30:ab:05:aa:5d:31:
                    81:cc:ed:3f:68:4e:7b:a2:a1:8a:15:d1:c6:f0:56:
                    50:55:ca:72:23:eb:44:ee:25:bf:03:84:d9:7e:a8:
                    51:03:0a:69:ba:2d:97:ff:75:6f:12:3a:71:22:4b:
                    93:b5
                Exponent: 65537 (0x10001)
        X509v3 extensions:
            X509v3 Basic Constraints: critical
                CA:FALSE
            X509v3 Subject Key Identifier: 
                B2:75:61:AF:63:66:27:96:94:52:3F:BD:03:DB:87:01:71:DD:94:19
            X509v3 Authority Key Identifier: 
                keyid:EA:DC:45:27:E6:73:8E:A8:91:9F:83:F4:F7:F6:C9:E9:EF:AE:26:89
                DirName:/C=FR/ST=IDF/L=Paris/O=Local NODE-OPCUA Certificate Authority/CN=NodeOPCUA-CA
                serial:B7:E5:64:1E:5C:CF:62:8D

            X509v3 Subject Alternative Name: 
                URI:SOMEURI
            Netscape Comment: 
                OpenSSL Generated Certificate
            X509v3 Key Usage: critical
                Digital Signature, Non Repudiation, Key Encipherment, Data Encipherment, Key Agreement, Certificate Sign
            X509v3 Extended Key Usage: critical
                TLS Web Server Authentication, TLS Web Client Authentication
    Signature Algorithm: sha256WithRSAEncryption
         c4:ba:79:e4:cb:ed:78:f3:f1:ee:83:36:5e:a2:78:82:e7:a8:
         6c:e9:d9:2b:6d:04:2e:ff:5c:20:d6:8b:75:37:af:a7:65:4c:
         0b:0f:b6:48:a8:35:03:6e:33:37:9f:fc:bf:6b:ee:5b:b4:e9:
         87:24:e8:38:06:9f:5d:f4:f1:71:92:0c:a0:48:cb:ab:fe:ba:
         f8:dd:51:63:fc:8f:0a:92:d0:c5:67:79:9c:35:96:37:45:b5:
         da:9e:eb:92:7b:5d:cd:ff:45:df:54:c7:47:76:3a:14:31:5b:
         6d:b5:50:33:6f:10:9d:3c:70:d8:b8:98:73:12:a8:c3:b1:c2:
         c8:4c:3c:ff:14:aa:f8:50:85:42:b3:50:72:99:8f:74:1b:fd:
         78:f2:a9:16:80:f8:15:b7:b4:8f:09:06:53:ca:27:10:11:b2:
         dc:00:f0:79:3f:1c:dd:54:6c:40:9f:16:fc:1f:bf:2b:1c:19:
         f3:4c:73:3a:e1:cd:bb:68:ed:4e:88:2d:ab:d1:aa:76:e8:47:
         e1:b0:06:8c:2c:bf:3d:2f:73:ce:d3:0b:b9:0e:16:c9:87:f9:
         10:c6:57:0e:f0:56:65:b9:08:a8:a1:8b:3d:51:04:67:30:16:
         77:25:37:5b:64:ca:b8:56:6c:a3:ee:84:6d:91:40:5a:a9:6c:
         88:97:26:f8
-----BEGIN CERTIFICATE-----
MIIEdzCCA1+gAwIBAgICEAEwDQYJKoZIhvcNAQELBQAwczELMAkGA1UEBhMCRlIx
DDAKBgNVBAgTA0lERjEOMAwGA1UEBxMFUGFyaXMxLzAtBgNVBAoTJkxvY2FsIE5P
REUtT1BDVUEgQ2VydGlmaWNhdGUgQXV0aG9yaXR5MRUwEwYDVQQDEwxOb2RlT1BD
VUEtQ0EwIhgPMjAyMTA1MDkxMzIxNDVaGA8yMDQ4MDkyNDEzMjE0NVowNTELMAkG
A1UEBhMCRlIxEjAQBgNVBAoMCU5vZGVPUENVQTESMBAGA1UEAwwJTm9kZU9QQ1VB
MIIBIjANBgkqhkiG9w0BAQEFAAOCAQ8AMIIBCgKCAQEA1mk8KmdWYHqYJ6j3ho6s
WU9FGXt+kuDVAU5kA/NzQqGkrqcWkUWNMwfPPd4OcFHn4ZGlH21lkOXe3uS7b8Hb
hSGRQrKGNAWkfG3Iky4IrVGZ+jXCpUtQ0cdRJ4kdqAgoZiCK8K9I/COWEB0Tr+cE
SLyNlg7kyu1JGMw1M/QToicH/P9fh8eONef1umssaH6JQLGUusbIDW6syaJRwtpA
LoNLLhks/HLmzrP+1Xa9u20uckfH+4w+9e16O2Z8oYaqacrSCnHdaOsiZlowqwWq
XTGBzO0/aE57oqGKFdHG8FZQVcpyI+tE7iW/A4TZfqhRAwppui2X/3VvEjpxIkuT
tQIDAQABo4IBTTCCAUkwDAYDVR0TAQH/BAIwADAdBgNVHQ4EFgQUsnVhr2NmJ5aU
Uj+9A9uHAXHdlBkwgaUGA1UdIwSBnTCBmoAU6txFJ+ZzjqiRn4P09/bJ6e+uJomh
d6R1MHMxCzAJBgNVBAYTAkZSMQwwCgYDVQQIEwNJREYxDjAMBgNVBAcTBVBhcmlz
MS8wLQYDVQQKEyZMb2NhbCBOT0RFLU9QQ1VBIENlcnRpZmljYXRlIEF1dGhvcml0
eTEVMBMGA1UEAxMMTm9kZU9QQ1VBLUNBggkAt+VkHlzPYo0wEgYDVR0RBAswCYYH
U09NRVVSSTAsBglghkgBhvhCAQ0EHxYdT3BlblNTTCBHZW5lcmF0ZWQgQ2VydGlm
aWNhdGUwDgYDVR0PAQH/BAQDAgL8MCAGA1UdJQEB/wQWMBQGCCsGAQUFBwMBBggr
BgEFBQcDAjANBgkqhkiG9w0BAQsFAAOCAQEAxLp55MvtePPx7oM2XqJ4gueobOnZ
K20ELv9cINaLdTevp2VMCw+2SKg1A24zN5/8v2vuW7TphyToOAafXfTxcZIMoEjL
q/66+N1RY/yPCpLQxWd5nDWWN0W12p7rkntdzf9F31THR3Y6FDFbbbVQM28QnTxw
2LiYcxKow7HCyEw8/xSq+FCFQrNQcpmPdBv9ePKpFoD4Fbe0jwkGU8onEBGy3ADw
eT8c3VRsQJ8W/B+/KxwZ80xzOuHNu2jtTogtq9GqduhH4bAGjCy/PS9zztMLuQ4W
yYf5EMZXDvBWZbkIqKGLPVEEZzAWdyU3W2TKuFZso+6EbZFAWqlsiJcm+A==
-----END CERTIFICATE-----
