Certificate:
    Data:
        Version: 3 (0x2)
        Serial Number: 4099 (0x1003)
    Signature Algorithm: sha256WithRSAEncryption
        Issuer: C=FR, ST=IDF, L=Paris, O=Local NODE-OPCUA Certificate Authority, CN=NodeOPCUA-CA
        Validity
            Not Before: May  8 13:21:45 2020 GMT
            Not After : May 18 13:21:45 2020 GMT
        Subject: C=FR, O=NodeOPCUA, CN=NodeOPCUA
        Subject Public Key Info:
            Public Key Algorithm: rsaEncryption
                Public-Key: (2048 bit)
                Modulus:
                    00:d6:69:3c:2a:67:56:60:7a:98:27:a8:f7:86:8e:
                    ac:59:4f:45:19:7b:7e:92:e0:d5:01:4e:64:03:f3:
                    73:42:a1:a4:ae:a7:16:91:45:8d:33:07:cf:3d:de:
                    0e:70:51:e7:e1:91:a5:1f:6d:65:90:e5:de:de:e4:
                    bb:6f:c1:db:85:21:91:42:b2:86:34:05:a4:7c:6d:
                    c8:93:2e:08:ad:51:99:fa:35:c2:a5:4b:50:d1:c7:
                    51:27:89:1d:a8:08:28:66:20:8a:f0:af:48:fc:23:
                    96:10:1d:13:af:e7:04:48:bc:8d:96:0e:e4:ca:ed:
                    49:18:cc:35:33:f4:13:a2:27:07:fc:ff:5f:87:c7:
                    8e:35:e7:f5:ba:6b:2c:68:7e:89:40:b1:94:ba:c6:
                    c8:0d:6e:ac:c9:a2:51:c2:da:40:2e:83:4b:2e:19:
                    2c:fc:72:e6:ce:b3:fe:d5:76:bd:bb:6d:2e:72:47:
                    c7:fb:8c:3e:f5:ed:7a:3b:66:7c:a1:86:aa:69:ca:
                    d2:0a:71:dd:68:eb:22:66:5a:30:ab:05:aa:5d:31:
                    81:cc:ed:3f:68:4e:7b:a2:a1:8a:15:d1:c6:f0:56:
                    50:55:ca:72:23:eb:44:ee:25:bf:03:84:d9:7e:a8:
                    51:03:0a:69:ba:2d:97:ff:75:6f:12:3a:71:22:4b:
                    93:b5
                Exponent: 65537 (0x10001)
        X509v3 extensions:
            X509v3 Basic Constraints: critical
                CA:FALSE
            X509v3 Subject Key Identifier: 
                B2:75:61:AF:63:66:27:96:94:52:3F:BD:03:DB:87:01:71:DD:94:19
            X509v3 Authority Key Identifier: 
                keyid:EA:DC:45:27:E6:73:8E:A8:91:9F:83:F4:F7:F6:C9:E9:EF:AE:26:89
                DirName:/C=FR/ST=IDF/L=Paris/O=Local NODE-OPCUA Certificate Authority/CN=NodeOPCUA-CA
                serial:B7:E5:64:1E:5C:CF:62:8D

            X509v3 Subject Alternative Name: 
                URI:SOMEURI
            Netscape Comment: 
                OpenSSL Generated Certificate
            X509v3 Key Usage: critical
                Digital Signature, Non Repudiation, Key Encipherment, Data Encipherment, Key Agreement, Certificate Sign
            X509v3 Extended Key Usage: critical
                TLS Web Server Authentication, TLS Web Client Authentication
    Signature Algorithm: sha256WithRSAEncryption
         52:b9:50:6d:57:ec:f4:9b:bc:81:fd:90:2d:cb:60:90:68:c1:
         3b:69:c9:51:75:e8:59:4a:81:42:a2:d0:40:87:ad:ca:b4:e4:
         e4:b0:96:15:c5:b0:1d:d8:4a:24:1e:ac:95:23:65:a8:9a:6a:
         0c:e1:3d:76:a9:77:5c:12:ce:3f:22:39:07:46:c4:19:0d:b5:
         54:1a:6a:ce:47:a7:a3:0a:e6:d9:34:75:d0:1b:35:ba:a0:98:
         47:06:5c:9b:49:e0:bd:a7:26:22:39:b5:d1:a4:2f:4f:a8:56:
         6d:86:fe:b5:c7:2f:5a:89:42:e0:7d:b2:52:0e:ee:6c:e5:7b:
         7b:bb:c3:04:17:4b:97:90:0f:54:52:75:7a:c6:eb:88:92:9b:
         66:ed:2f:70:e6:21:be:83:be:8a:c1:1d:27:58:7c:4c:62:08:
         5c:d2:f2:bc:b7:ba:c8:c8:44:41:ba:50:02:fe:ef:d1:ec:4c:
         a2:55:b0:cb:04:e6:69:d3:9e:27:a8:80:84:62:b8:b1:9f:f3:
         81:4c:ee:75:69:d5:34:88:ae:a8:b3:e0:33:dc:72:58:d5:7a:
         71:4c:ef:74:92:62:20:9e:45:b4:5e:d0:a9:9c:72:e7:59:57:
         15:d2:4b:ff:78:c9:17:90:99:a7:17:a1:0e:e8:39:54:3a:ed:
         10:72:0d:87
-----BEGIN CERTIFICATE-----
MIIEdzCCA1+gAwIBAgICEAMwDQYJKoZIhvcNAQELBQAwczELMAkGA1UEBhMCRlIx
DDAKBgNVBAgTA0lERjEOMAwGA1UEBxMFUGFyaXMxLzAtBgNVBAoTJkxvY2FsIE5P
REUtT1BDVUEgQ2VydGlmaWNhdGUgQXV0aG9yaXR5MRUwEwYDVQQDEwxOb2RlT1BD
VUEtQ0EwIhgPMjAyMDA1MDgxMzIxNDVaGA8yMDIwMDUxODEzMjE0NVowNTELMAkG
A1UEBhMCRlIxEjAQBgNVBAoMCU5vZGVPUENVQTESMBAGA1UEAwwJTm9kZU9QQ1VB
MIIBIjANBgkqhkiG9w0BAQEFAAOCAQ8AMIIBCgKCAQEA1mk8KmdWYHqYJ6j3ho6s
WU9FGXt+kuDVAU5kA/NzQqGkrqcWkUWNMwfPPd4OcFHn4ZGlH21lkOXe3uS7b8Hb
hSGRQrKGNAWkfG3Iky4IrVGZ+jXCpUtQ0cdRJ4kdqAgoZiCK8K9I/COWEB0Tr+cE
SLyNlg7kyu1JGMw1M/QToicH/P9fh8eONef1umssaH6JQLGUusbIDW6syaJRwtpA
LoNLLhks/HLmzrP+1Xa9u20uckfH+4w+9e16O2Z8oYaqacrSCnHdaOsiZlowqwWq
XTGBzO0/aE57oqGKFdHG8FZQVcpyI+tE7iW/A4TZfqhRAwppui2X/3VvEjpxIkuT
tQIDAQABo4IBTTCCAUkwDAYDVR0TAQH/BAIwADAdBgNVHQ4EFgQUsnVhr2NmJ5aU
Uj+9A9uHAXHdlBkwgaUGA1UdIwSBnTCBmoAU6txFJ+ZzjqiRn4P09/bJ6e+uJomh
d6R1MHMxCzAJBgNVBAYTAkZSMQwwCgYDVQQIEwNJREYxDjAMBgNVBAcTBVBhcmlz
MS8wLQYDVQQKEyZMb2NhbCBOT0RFLU9QQ1VBIENlcnRpZmljYXRlIEF1dGhvcml0
eTEVMBMGA1UEAxMMTm9kZU9QQ1VBLUNBggkAt+VkHlzPYo0wEgYDVR0RBAswCYYH
U09NRVVSSTAsBglghkgBhvhCAQ0EHxYdT3BlblNTTCBHZW5lcmF0ZWQgQ2VydGlm
aWNhdGUwDgYDVR0PAQH/BAQDAgL8MCAGA1UdJQEB/wQWMBQGCCsGAQUFBwMBBggr
BgEFBQcDAjANBgkqhkiG9w0BAQsFAAOCAQEAUrlQbVfs9Ju8gf2QLctgkGjBO2nJ
UXXoWUqBQqLQQIetyrTk5LCWFcWwHdhKJB6slSNlqJpqDOE9dql3XBLOPyI5B0bE
GQ21VBpqzkenowrm2TR10Bs1uqCYRwZcm0ngvacmIjm10aQvT6hWbYb+tccvWolC
4H2yUg7ubOV7e7vDBBdLl5APVFJ1esbriJKbZu0vcOYhvoO+isEdJ1h8TGIIXNLy
vLe6yMhEQbpQAv7v0exMolWwywTmadOeJ6iAhGK4sZ/zgUzudWnVNIiuqLPgM9xy
WNV6cUzvdJJiIJ5FtF7QqZxy51lXFdJL/3jJF5CZpxehDug5VDrtEHINhw==
-----END CERTIFICATE-----
